target datalayout = "e-m:e-p270:32:32-p271:32:32-p272:64:64-i64:64-i128:128-f80:128-n8:16:32:64-S128"
target triple = "x86_64-pc-linux-gnu"

%struct.Lexer = type { ptr, ptr, ptr, ptr, i32, i32, ptr, ptr, ptr, %struct.TokenData, %union.SourceSpan, i32, i32 }
%struct.TokenData = type { ptr, i64, %union.anon.86 }
%union.anon.86 = type { %struct.anon.89 }
%struct.anon.89 = type { %struct.Int128_, i8 }
%struct.Int128_ = type { i64, i64 }
%union.SourceSpan = type { i64 }

@.str.71 = private unnamed_addr constant [32 x i8] c"A letter must precede any digit\00", align 1
@.str.72 = private unnamed_addr constant [2 x i8] c"_\00", align 1
@.str.73 = private unnamed_addr constant [43 x i8] c"An identifier was expected after the '%c'.\00", align 1
@.str.74 = private unnamed_addr constant [54 x i8] c"An identifier may not consist of only '_' characters.\00", align 1

; Function Attrs: nounwind uwtable
define internal zeroext i1 @scan_ident(ptr noundef %0, i32 noundef %1, i32 noundef %2, i32 noundef %3, i8 noundef signext %4) #0 {
  %6 = alloca ptr, align 8
  %7 = alloca ptr, align 8
  %8 = alloca i1, align 1
  %9 = alloca ptr, align 8
  %10 = alloca i32, align 4
  %11 = alloca i32, align 4
  %12 = alloca i32, align 4
  %13 = alloca i8, align 1
  %14 = alloca i32, align 4
  %15 = alloca i32, align 4
  %16 = alloca i8, align 1
  %17 = alloca i32, align 4
  %18 = alloca ptr, align 8
  store ptr %0, ptr %9, align 8
  store i32 %1, ptr %10, align 4
  store i32 %2, ptr %11, align 4
  store i32 %3, ptr %12, align 4
  store i8 %4, ptr %13, align 1
  store i32 0, ptr %14, align 4
  store i32 -2128831035, ptr %15, align 4
  %19 = load i8, ptr %13, align 1
  %20 = icmp ne i8 %19, 0
  br i1 %20, label %21, label %27

21:                                               ; preds = %5
  %22 = load i8, ptr %13, align 1
  %23 = sext i8 %22 to i32
  %24 = load i32, ptr %15, align 4
  %25 = xor i32 %23, %24
  %26 = mul i32 %25, 16777619
  store i32 %26, ptr %15, align 4
  br label %27

27:                                               ; preds = %21, %5
  br label %28

28:                                               ; preds = %59, %27
  %29 = load ptr, ptr %9, align 8
  %30 = getelementptr inbounds %struct.Lexer, ptr %29, i32 0, i32 3
  %31 = load ptr, ptr %30, align 8
  %32 = load i8, ptr %31, align 1
  store i8 %32, ptr %16, align 1
  %33 = sext i8 %32 to i32
  %34 = icmp eq i32 %33, 95
  br i1 %34, label %35, label %64

35:                                               ; preds = %28
  %36 = load i8, ptr %16, align 1
  %37 = sext i8 %36 to i32
  %38 = load i32, ptr %15, align 4
  %39 = xor i32 %37, %38
  %40 = mul i32 %39, 16777619
  store i32 %40, ptr %15, align 4
  %41 = load ptr, ptr %9, align 8
  store ptr %41, ptr %6, align 8
  %42 = load ptr, ptr %6, align 8
  %43 = getelementptr inbounds %struct.Lexer, ptr %42, i32 0, i32 3
  %44 = load ptr, ptr %43, align 8
  %45 = load i8, ptr %44, align 1
  %46 = sext i8 %45 to i32
  %47 = icmp eq i32 %46, 10
  br i1 %47, label %48, label %59

48:                                               ; preds = %35
  %49 = load ptr, ptr %6, align 8
  %50 = getelementptr inbounds %struct.Lexer, ptr %49, i32 0, i32 3
  %51 = load ptr, ptr %50, align 8
  %52 = getelementptr inbounds i8, ptr %51, i64 1
  %53 = load ptr, ptr %6, align 8
  %54 = getelementptr inbounds %struct.Lexer, ptr %53, i32 0, i32 6
  store ptr %52, ptr %54, align 8
  %55 = load ptr, ptr %6, align 8
  %56 = getelementptr inbounds %struct.Lexer, ptr %55, i32 0, i32 4
  %57 = load i32, ptr %56, align 8
  %58 = add i32 %57, 1
  store i32 %58, ptr %56, align 8
  br label %59

59:                                               ; preds = %48, %35
  %60 = load ptr, ptr %6, align 8
  %61 = getelementptr inbounds %struct.Lexer, ptr %60, i32 0, i32 3
  %62 = load ptr, ptr %61, align 8
  %63 = getelementptr inbounds i8, ptr %62, i32 1
  store ptr %63, ptr %61, align 8
  br label %28, !llvm.loop !15

64:                                               ; preds = %28
  br label %65

65:                                               ; preds = %124, %64
  %66 = load ptr, ptr %9, align 8
  %67 = getelementptr inbounds %struct.Lexer, ptr %66, i32 0, i32 3
  %68 = load ptr, ptr %67, align 8
  %69 = load i8, ptr %68, align 1
  store i8 %69, ptr %16, align 1
  %70 = load i8, ptr %16, align 1
  %71 = sext i8 %70 to i32
  switch i32 %71, label %99 [
    i32 97, label %72
    i32 98, label %72
    i32 99, label %72
    i32 100, label %72
    i32 101, label %72
    i32 102, label %72
    i32 103, label %72
    i32 104, label %72
    i32 105, label %72
    i32 106, label %72
    i32 107, label %72
    i32 108, label %72
    i32 109, label %72
    i32 110, label %72
    i32 111, label %72
    i32 112, label %72
    i32 113, label %72
    i32 114, label %72
    i32 115, label %72
    i32 116, label %72
    i32 117, label %72
    i32 118, label %72
    i32 119, label %72
    i32 120, label %72
    i32 121, label %72
    i32 122, label %72
    i32 65, label %85
    i32 66, label %85
    i32 67, label %85
    i32 68, label %85
    i32 69, label %85
    i32 70, label %85
    i32 71, label %85
    i32 72, label %85
    i32 73, label %85
    i32 74, label %85
    i32 75, label %85
    i32 76, label %85
    i32 77, label %85
    i32 78, label %85
    i32 79, label %85
    i32 80, label %85
    i32 81, label %85
    i32 82, label %85
    i32 83, label %85
    i32 84, label %85
    i32 85, label %85
    i32 86, label %85
    i32 87, label %85
    i32 88, label %85
    i32 89, label %85
    i32 90, label %85
    i32 48, label %91
    i32 49, label %91
    i32 50, label %91
    i32 51, label %91
    i32 52, label %91
    i32 53, label %91
    i32 54, label %91
    i32 55, label %91
    i32 56, label %91
    i32 57, label %91
    i32 95, label %98
  ]

72:                                               ; preds = %65, %65, %65, %65, %65, %65, %65, %65, %65, %65, %65, %65, %65, %65, %65, %65, %65, %65, %65, %65, %65, %65, %65, %65, %65, %65
  %73 = load i32, ptr %14, align 4
  %74 = icmp ne i32 %73, 0
  br i1 %74, label %77, label %75

75:                                               ; preds = %72
  %76 = load i32, ptr %10, align 4
  store i32 %76, ptr %14, align 4
  br label %84

77:                                               ; preds = %72
  %78 = load i32, ptr %14, align 4
  %79 = load i32, ptr %11, align 4
  %80 = icmp eq i32 %78, %79
  br i1 %80, label %81, label %83

81:                                               ; preds = %77
  %82 = load i32, ptr %12, align 4
  store i32 %82, ptr %14, align 4
  br label %83

83:                                               ; preds = %81, %77
  br label %84

84:                                               ; preds = %83, %75
  br label %100

85:                                               ; preds = %65, %65, %65, %65, %65, %65, %65, %65, %65, %65, %65, %65, %65, %65, %65, %65, %65, %65, %65, %65, %65, %65, %65, %65, %65, %65
  %86 = load i32, ptr %14, align 4
  %87 = icmp ne i32 %86, 0
  br i1 %87, label %90, label %88

88:                                               ; preds = %85
  %89 = load i32, ptr %11, align 4
  store i32 %89, ptr %14, align 4
  br label %90

90:                                               ; preds = %88, %85
  br label %100

91:                                               ; preds = %65, %65, %65, %65, %65, %65, %65, %65, %65, %65
  %92 = load i32, ptr %14, align 4
  %93 = icmp ne i32 %92, 0
  br i1 %93, label %97, label %94

94:                                               ; preds = %91
  %95 = load ptr, ptr %9, align 8
  %96 = call zeroext i1 (ptr, ptr, ...) @add_error_token(ptr noundef %95, ptr noundef @.str.71)
  store i1 %96, ptr %8, align 1
  br label %187

97:                                               ; preds = %91
  br label %98

98:                                               ; preds = %97, %65
  br label %100

99:                                               ; preds = %65
  br label %129

100:                                              ; preds = %98, %90, %84
  %101 = load i8, ptr %16, align 1
  %102 = sext i8 %101 to i32
  %103 = load i32, ptr %15, align 4
  %104 = xor i32 %102, %103
  %105 = mul i32 %104, 16777619
  store i32 %105, ptr %15, align 4
  %106 = load ptr, ptr %9, align 8
  store ptr %106, ptr %7, align 8
  %107 = load ptr, ptr %7, align 8
  %108 = getelementptr inbounds %struct.Lexer, ptr %107, i32 0, i32 3
  %109 = load ptr, ptr %108, align 8
  %110 = load i8, ptr %109, align 1
  %111 = sext i8 %110 to i32
  %112 = icmp eq i32 %111, 10
  br i1 %112, label %113, label %124

113:                                              ; preds = %100
  %114 = load ptr, ptr %7, align 8
  %115 = getelementptr inbounds %struct.Lexer, ptr %114, i32 0, i32 3
  %116 = load ptr, ptr %115, align 8
  %117 = getelementptr inbounds i8, ptr %116, i64 1
  %118 = load ptr, ptr %7, align 8
  %119 = getelementptr inbounds %struct.Lexer, ptr %118, i32 0, i32 6
  store ptr %117, ptr %119, align 8
  %120 = load ptr, ptr %7, align 8
  %121 = getelementptr inbounds %struct.Lexer, ptr %120, i32 0, i32 4
  %122 = load i32, ptr %121, align 8
  %123 = add i32 %122, 1
  store i32 %123, ptr %121, align 8
  br label %124

124:                                              ; preds = %113, %100
  %125 = load ptr, ptr %7, align 8
  %126 = getelementptr inbounds %struct.Lexer, ptr %125, i32 0, i32 3
  %127 = load ptr, ptr %126, align 8
  %128 = getelementptr inbounds i8, ptr %127, i32 1
  store ptr %128, ptr %126, align 8
  br label %65

129:                                              ; preds = %99
  %130 = load ptr, ptr %9, align 8
  %131 = getelementptr inbounds %struct.Lexer, ptr %130, i32 0, i32 3
  %132 = load ptr, ptr %131, align 8
  %133 = load ptr, ptr %9, align 8
  %134 = getelementptr inbounds %struct.Lexer, ptr %133, i32 0, i32 2
  %135 = load ptr, ptr %134, align 8
  %136 = ptrtoint ptr %132 to i64
  %137 = ptrtoint ptr %135 to i64
  %138 = sub i64 %136, %137
  %139 = trunc i64 %138 to i32
  store i32 %139, ptr %17, align 4
  %140 = load i32, ptr %14, align 4
  %141 = icmp ne i32 %140, 0
  br i1 %141, label %166, label %142

142:                                              ; preds = %129
  %143 = load i8, ptr %13, align 1
  %144 = icmp ne i8 %143, 0
  br i1 %144, label %151, label %145

145:                                              ; preds = %142
  %146 = load i32, ptr %17, align 4
  %147 = icmp eq i32 %146, 1
  br i1 %147, label %148, label %151

148:                                              ; preds = %145
  %149 = load ptr, ptr %9, align 8
  %150 = call zeroext i1 @return_token(ptr noundef %149, i32 noundef 28, ptr noundef @.str.72)
  store i1 %150, ptr %8, align 1
  br label %187

151:                                              ; preds = %145, %142
  %152 = load i8, ptr %13, align 1
  %153 = sext i8 %152 to i32
  %154 = icmp ne i32 %153, 0
  br i1 %154, label %155, label %163

155:                                              ; preds = %151
  %156 = load i32, ptr %17, align 4
  %157 = icmp eq i32 %156, 1
  br i1 %157, label %158, label %163

158:                                              ; preds = %155
  %159 = load ptr, ptr %9, align 8
  %160 = load i8, ptr %13, align 1
  %161 = sext i8 %160 to i32
  %162 = call zeroext i1 (ptr, ptr, ...) @add_error_token(ptr noundef %159, ptr noundef @.str.73, i32 noundef %161)
  store i1 %162, ptr %8, align 1
  br label %187

163:                                              ; preds = %155, %151
  %164 = load ptr, ptr %9, align 8
  %165 = call zeroext i1 (ptr, ptr, ...) @add_error_token(ptr noundef %164, ptr noundef @.str.74)
  store i1 %165, ptr %8, align 1
  br label %187

166:                                              ; preds = %129
  %167 = load ptr, ptr %9, align 8
  %168 = getelementptr inbounds %struct.Lexer, ptr %167, i32 0, i32 2
  %169 = load ptr, ptr %168, align 8
  %170 = load i32, ptr %17, align 4
  %171 = load i32, ptr %15, align 4
  %172 = call ptr @symtab_add(ptr noundef %169, i32 noundef %170, i32 noundef %171, ptr noundef %14)
  store ptr %172, ptr %18, align 8
  %173 = load i32, ptr %14, align 4
  switch i32 %173, label %181 [
    i32 136, label %174
  ]

174:                                              ; preds = %166
  %175 = load ptr, ptr %9, align 8
  %176 = getelementptr inbounds %struct.Lexer, ptr %175, i32 0, i32 12
  %177 = load i32, ptr %176, align 4
  %178 = icmp eq i32 %177, 1
  br i1 %178, label %179, label %180

179:                                              ; preds = %174
  store i32 64, ptr %14, align 4
  br label %180

180:                                              ; preds = %179, %174
  br label %182

181:                                              ; preds = %166
  br label %182

182:                                              ; preds = %181, %180
  %183 = load ptr, ptr %9, align 8
  %184 = load i32, ptr %14, align 4
  %185 = load ptr, ptr %18, align 8
  %186 = call zeroext i1 @return_token(ptr noundef %183, i32 noundef %184, ptr noundef %185)
  store i1 %186, ptr %8, align 1
  br label %187

187:                                              ; preds = %182, %163, %158, %148, %94
  %188 = load i1, ptr %8, align 1
  ret i1 %188
}