; Function Attrs: nounwind uwtable
define internal fastcc noundef zeroext i1 @scan_ident(ptr nocapture noundef %0, i32 noundef %1, i32 noundef %2, i32 noundef %3, i8 noundef signext %4) unnamed_addr #0 {
  %6 = alloca i32, align 4
  store i32 0, ptr %6, align 4
  %.not = icmp eq i8 %4, 0
  %7 = zext nneg i8 %4 to i32
  %8 = xor i32 %7, -2128831035
  %9 = mul i32 %8, 16777619
  %.046 = select i1 %.not, i32 -2128831035, i32 %9
  %10 = getelementptr inbounds i8, ptr %0, i64 24
  %.promoted = load ptr, ptr %10, align 8
  %11 = load i8, ptr %.promoted, align 1
  %12 = icmp eq i8 %11, 95
  br i1 %12, label %.lr.ph, label %.preheader

.preheader:                                       ; preds = %.lr.ph, %5
  %13 = phi i8 [ %11, %5 ], [ %21, %.lr.ph ]
  %14 = phi ptr [ %.promoted, %5 ], [ %20, %.lr.ph ]
  %.1.lcssa = phi i32 [ %.046, %5 ], [ %19, %.lr.ph ]
  %15 = getelementptr inbounds i8, ptr %0, i64 40
  %16 = getelementptr inbounds i8, ptr %0, i64 32
  br label %23

.lr.ph:                                           ; preds = %5, %.lr.ph
  %.158 = phi i32 [ %19, %.lr.ph ], [ %.046, %5 ]
  %17 = phi ptr [ %20, %.lr.ph ], [ %.promoted, %5 ]
  %18 = xor i32 %.158, 95
  %19 = mul i32 %18, 16777619
  %20 = getelementptr inbounds i8, ptr %17, i64 1
  store ptr %20, ptr %10, align 8
  %21 = load i8, ptr %20, align 1
  %22 = icmp eq i8 %21, 95
  br i1 %22, label %.lr.ph, label %.preheader, !llvm.loop !16

23:                                               ; preds = %.preheader, %.thread
  %24 = phi i8 [ %.pre, %.thread ], [ %13, %.preheader ]
  %25 = phi ptr [ %46, %.thread ], [ %14, %.preheader ]
  %26 = phi i32 [ %44, %.thread ], [ 0, %.preheader ]
  %.2 = phi i32 [ %45, %.thread ], [ %.1.lcssa, %.preheader ]
  %27 = sext i8 %24 to i32
  switch i8 %24, label %47 [
    i8 97, label %28
    i8 98, label %28
    i8 99, label %28
    i8 100, label %28
    i8 101, label %28
    i8 102, label %28
    i8 103, label %28
    i8 104, label %28
    i8 105, label %28
    i8 106, label %28
    i8 107, label %28
    i8 108, label %28
    i8 109, label %28
    i8 110, label %28
    i8 111, label %28
    i8 112, label %28
    i8 113, label %28
    i8 114, label %28
    i8 115, label %28
    i8 116, label %28
    i8 117, label %28
    i8 118, label %28
    i8 119, label %28
    i8 120, label %28
    i8 121, label %28
    i8 122, label %28
    i8 65, label %33
    i8 66, label %33
    i8 67, label %33
    i8 68, label %33
    i8 69, label %33
    i8 70, label %33
    i8 71, label %33
    i8 72, label %33
    i8 73, label %33
    i8 74, label %33
    i8 75, label %33
    i8 76, label %33
    i8 77, label %33
    i8 78, label %33
    i8 79, label %33
    i8 80, label %33
    i8 81, label %33
    i8 82, label %33
    i8 83, label %33
    i8 84, label %33
    i8 85, label %33
    i8 86, label %33
    i8 87, label %33
    i8 88, label %33
    i8 89, label %33
    i8 90, label %33
    i8 48, label %35
    i8 49, label %35
    i8 50, label %35
    i8 51, label %35
    i8 52, label %35
    i8 53, label %35
    i8 54, label %35
    i8 55, label %35
    i8 56, label %35
    i8 57, label %35
    i8 95, label %.thread
  ]

28:                                               ; preds = %23, %23, %23, %23, %23, %23, %23, %23, %23, %23, %23, %23, %23, %23, %23, %23, %23, %23, %23, %23, %23, %23, %23, %23, %23, %23
  %.not53 = icmp eq i32 %26, 0
  br i1 %.not53, label %29, label %30

29:                                               ; preds = %28
  store i32 %1, ptr %6, align 4
  br label %37

30:                                               ; preds = %28
  %31 = icmp eq i32 %26, %2
  br i1 %31, label %32, label %37

32:                                               ; preds = %30
  store i32 %3, ptr %6, align 4
  br label %37

33:                                               ; preds = %23, %23, %23, %23, %23, %23, %23, %23, %23, %23, %23, %23, %23, %23, %23, %23, %23, %23, %23, %23, %23, %23, %23, %23, %23, %23
  %.not52 = icmp eq i32 %26, 0
  br i1 %.not52, label %34, label %37

34:                                               ; preds = %33
  store i32 %2, ptr %6, align 4
  br label %37

35:                                               ; preds = %23, %23, %23, %23, %23, %23, %23, %23, %23, %23
  %.not51 = icmp eq i32 %26, 0
  br i1 %.not51, label %36, label %37

36:                                               ; preds = %35
  tail call void (ptr, ptr, ...) @add_error_token(ptr noundef nonnull %0, ptr noundef nonnull @.str.71)
  br label %104

37:                                               ; preds = %35, %33, %34, %29, %32, %30
  %38 = phi i32 [ %26, %35 ], [ %26, %33 ], [ %2, %34 ], [ %1, %29 ], [ %3, %32 ], [ %26, %30 ]
  %.pr = load i8, ptr %25, align 1
  %39 = icmp eq i8 %.pr, 10
  br i1 %39, label %40, label %.thread

40:                                               ; preds = %37
  %41 = getelementptr inbounds i8, ptr %25, i64 1
  store ptr %41, ptr %15, align 8
  %42 = load i32, ptr %16, align 8
  %43 = add i32 %42, 1
  store i32 %43, ptr %16, align 8
  br label %.thread

.thread:                                          ; preds = %23, %40, %37
  %44 = phi i32 [ %26, %23 ], [ %38, %40 ], [ %38, %37 ]
  %.in = xor i32 %.2, %27
  %45 = mul i32 %.in, 16777619
  %46 = getelementptr inbounds i8, ptr %25, i64 1
  store ptr %46, ptr %10, align 8
  %.pre = load i8, ptr %46, align 1
  br label %23

47:                                               ; preds = %23
  %48 = getelementptr inbounds i8, ptr %0, i64 16
  %49 = load ptr, ptr %48, align 8
  %50 = ptrtoint ptr %25 to i64
  %51 = ptrtoint ptr %49 to i64
  %52 = sub i64 %50, %51
  %53 = trunc i64 %52 to i32
  %.not54 = icmp eq i32 %26, 0
  br i1 %.not54, label %54, label %61

54:                                               ; preds = %47
  %55 = icmp eq i32 %53, 1
  %or.cond = select i1 %.not, i1 %55, i1 false
  br i1 %or.cond, label %56, label %57

56:                                               ; preds = %54
  tail call fastcc void @return_token(ptr noundef nonnull %0, i32 noundef 28, ptr noundef nonnull @.str.72)
  br label %104

57:                                               ; preds = %54
  %58 = icmp ne i8 %4, 0
  %or.cond3 = select i1 %58, i1 %55, i1 false
  br i1 %or.cond3, label %59, label %60

59:                                               ; preds = %57
  tail call void (ptr, ptr, ...) @add_error_token(ptr noundef nonnull %0, ptr noundef nonnull @.str.73, i32 noundef %7)
  br label %104

60:                                               ; preds = %57
  tail call void (ptr, ptr, ...) @add_error_token(ptr noundef nonnull %0, ptr noundef nonnull @.str.74)
  br label %104

61:                                               ; preds = %47
  %62 = call ptr @symtab_add(ptr noundef %49, i32 noundef %53, i32 noundef %.2, ptr noundef nonnull %6) #10
  %63 = load i32, ptr %6, align 4
  %cond = icmp eq i32 %63, 136
  br i1 %cond, label %64, label %68

64:                                               ; preds = %61
  %65 = getelementptr inbounds i8, ptr %0, i64 116
  %66 = load i32, ptr %65, align 4
  %67 = icmp eq i32 %66, 1
  %spec.select = select i1 %67, i32 64, i32 136
  br label %68

68:                                               ; preds = %64, %61
  %69 = phi i32 [ %63, %61 ], [ %spec.select, %64 ]
  %70 = getelementptr inbounds i8, ptr %0, i64 112
  store i32 %69, ptr %70, align 8
  %71 = load ptr, ptr %10, align 8
  %72 = load ptr, ptr %48, align 8
  %73 = ptrtoint ptr %71 to i64
  %74 = ptrtoint ptr %72 to i64
  %75 = sub i64 %73, %74
  %76 = getelementptr inbounds i8, ptr %0, i64 64
  %77 = getelementptr inbounds i8, ptr %0, i64 72
  store i64 %75, ptr %77, align 8
  store ptr %72, ptr %76, align 8
  %78 = getelementptr inbounds i8, ptr %0, i64 36
  %79 = load i32, ptr %78, align 4
  %80 = load i32, ptr %16, align 8
  %81 = icmp eq i32 %79, %80
  br i1 %81, label %82, label %92

82:                                               ; preds = %68
  %83 = load ptr, ptr %15, align 8
  %84 = ptrtoint ptr %83 to i64
  %85 = sub i64 %74, %84
  %86 = icmp sgt i64 %85, 254
  %87 = trunc i64 %85 to i8
  %88 = add i8 %87, 1
  %.0.i.i.i = select i1 %86, i8 0, i8 %88
  %89 = icmp sgt i64 %75, 255
  %90 = trunc i64 %75 to i8
  %91 = select i1 %89, i8 0, i8 %90
  br label %return_token.exit

92:                                               ; preds = %68
  %93 = getelementptr inbounds i8, ptr %0, i64 48
  %94 = load ptr, ptr %93, align 8
  %95 = ptrtoint ptr %94 to i64
  %96 = sub i64 %74, %95
  %97 = icmp sgt i64 %96, 254
  %98 = trunc i64 %96 to i8
  %99 = add i8 %98, 1
  %.0.i26.i.i = select i1 %97, i8 0, i8 %99
  br label %return_token.exit

return_token.exit:                                ; preds = %82, %92
  %.024.in.i.i = phi i8 [ %.0.i.i.i, %82 ], [ %.0.i26.i.i, %92 ]
  %.0.i.i = phi i8 [ %91, %82 ], [ 1, %92 ]
  %100 = getelementptr inbounds i8, ptr %0, i64 106
  store i8 %.0.i.i, ptr %100, align 2
  %101 = getelementptr inbounds i8, ptr %0, i64 107
  store i8 %.024.in.i.i, ptr %101, align 1
  %102 = getelementptr inbounds i8, ptr %0, i64 108
  store i32 %79, ptr %102, align 4
  %103 = getelementptr inbounds i8, ptr %0, i64 80
  store ptr %62, ptr %103, align 8
  br label %104

104:                                              ; preds = %return_token.exit, %60, %59, %56, %36
  %.0 = phi i1 [ true, %return_token.exit ], [ true, %56 ], [ false, %59 ], [ false, %60 ], [ false, %36 ]
  ret i1 %.0
}